target datalayout = "e-m:e-p270:32:32-p271:32:32-p272:64:64-i64:64-i128:128-f80:128-n8:16:32:64-S128"
target triple = "x86_64-unknown-linux-gnu"

%"struct.QuantLib::EnergyDailyPosition" = type <{ %"class.QuantLib::Date", double, double, double, double, i8, [7 x i8] }>
%"class.QuantLib::Date" = type { i64 }

; Function Attrs: mustprogress nounwind uwtable
define void @_ZN8QuantLib19EnergyDailyPositionC2ERKNS_4DateEddb(ptr noundef nonnull align 8 dereferenceable(41) %this, ptr noundef nonnull align 8 dereferenceable(8) %date, double noundef %payLegPrice, double noundef %receiveLegPrice, i1 noundef zeroext %unrealized) unnamed_addr #4 align 2 {
entry:
  %this.addr = alloca ptr, align 8
  %date.addr = alloca ptr, align 8
  %payLegPrice.addr = alloca double, align 8
  %receiveLegPrice.addr = alloca double, align 8
  %unrealized.addr = alloca i8, align 1
  store ptr %this, ptr %this.addr, align 8, !tbaa !3
  store ptr %date, ptr %date.addr, align 8, !tbaa !3
  store double %payLegPrice, ptr %payLegPrice.addr, align 8, !tbaa !19
  store double %receiveLegPrice, ptr %receiveLegPrice.addr, align 8, !tbaa !19
  %storedv = zext i1 %unrealized to i8
  store i8 %storedv, ptr %unrealized.addr, align 1, !tbaa !21
  %this1 = load ptr, ptr %this.addr, align 8
  %date2 = getelementptr inbounds nuw %"struct.QuantLib::EnergyDailyPosition", ptr %this1, i32 0, i32 0
  %0 = load ptr, ptr %date.addr, align 8, !tbaa !3
  call void @llvm.memcpy.p0.p0.i64(ptr align 8 %date2, ptr align 8 %0, i64 8, i1 false), !tbaa.struct !22
  %quantityAmount = getelementptr inbounds nuw %"struct.QuantLib::EnergyDailyPosition", ptr %this1, i32 0, i32 1
  store double 0.000000e+00, ptr %quantityAmount, align 8, !tbaa !25
  %payLegPrice3 = getelementptr inbounds nuw %"struct.QuantLib::EnergyDailyPosition", ptr %this1, i32 0, i32 2
  %1 = load double, ptr %payLegPrice.addr, align 8, !tbaa !19
  store double %1, ptr %payLegPrice3, align 8, !tbaa !28
  %receiveLegPrice4 = getelementptr inbounds nuw %"struct.QuantLib::EnergyDailyPosition", ptr %this1, i32 0, i32 3
  %2 = load double, ptr %receiveLegPrice.addr, align 8, !tbaa !19
  store double %2, ptr %receiveLegPrice4, align 8, !tbaa !29
  %unrealized5 = getelementptr inbounds nuw %"struct.QuantLib::EnergyDailyPosition", ptr %this1, i32 0, i32 5
  %3 = load i8, ptr %unrealized.addr, align 1, !tbaa !21, !range !10, !noundef !11
  %loadedv = trunc i8 %3 to i1
  %storedv6 = zext i1 %loadedv to i8
  store i8 %storedv6, ptr %unrealized5, align 8, !tbaa !30
  ret void
}