; Function Attrs: mustprogress nofree norecurse nosync nounwind willreturn memory(argmem: readwrite) uwtable
define void @_ZN8QuantLib19EnergyDailyPositionC2ERKNS_4DateEddb(ptr nocapture noundef nonnull writeonly align 8 dereferenceable(41) %this, ptr nocapture noundef nonnull readonly align 8 dereferenceable(8) %date, double noundef %payLegPrice, double noundef %receiveLegPrice, i1 noundef zeroext %unrealized) unnamed_addr #7 align 2 {
entry:
  %storedv = zext i1 %unrealized to i8
  %0 = load i64, ptr %date, align 8, !tbaa !15
  store i64 %0, ptr %this, align 8, !tbaa !15
  %quantityAmount = getelementptr inbounds nuw i8, ptr %this, i64 8
  store double 0.000000e+00, ptr %quantityAmount, align 8, !tbaa !17
  %payLegPrice3 = getelementptr inbounds nuw i8, ptr %this, i64 16
  store double %payLegPrice, ptr %payLegPrice3, align 8, !tbaa !21
  %receiveLegPrice4 = getelementptr inbounds nuw i8, ptr %this, i64 24
  store double %receiveLegPrice, ptr %receiveLegPrice4, align 8, !tbaa !22
  %unrealized5 = getelementptr inbounds nuw i8, ptr %this, i64 40
  store i8 %storedv, ptr %unrealized5, align 8, !tbaa !23
  ret void
}